; Function Attrs: nounwind uwtable
define ptr @l_Lean_Elab_Tactic_Rfl_evalApplyRfl(ptr noundef %0, ptr noundef %1, ptr noundef %2, ptr noundef %3, ptr noundef %4, ptr noundef %5, ptr noundef %6, ptr noundef %7, ptr noundef %8, ptr noundef %9) #0 {
  %11 = load ptr, ptr @l_Lean_Elab_Tactic_Rfl_evalApplyRfl___closed__5, align 8, !tbaa !4
  %12 = tail call zeroext i8 @l_Lean_Syntax_isOfKind(ptr noundef %0, ptr noundef %11) #3
  %13 = icmp eq i8 %12, 0
  br i1 %13, label %14, label %94

14:                                               ; preds = %10
  %15 = ptrtoint ptr %8 to i64
  %16 = and i64 %15, 1
  %.not = icmp eq i64 %16, 0
  br i1 %.not, label %17, label %lean_dec.exit

17:                                               ; preds = %14
  %18 = load i32, ptr %8, align 4, !tbaa !8
  %19 = icmp sgt i32 %18, 1
  br i1 %19, label %20, label %22, !prof !13

20:                                               ; preds = %17
  %21 = add nsw i32 %18, -1
  store i32 %21, ptr %8, align 4, !tbaa !8
  br label %lean_dec.exit

22:                                               ; preds = %17
  %.not.i43 = icmp eq i32 %18, 0
  br i1 %.not.i43, label %lean_dec.exit, label %23

23:                                               ; preds = %22
  tail call void @lean_dec_ref_cold(ptr noundef nonnull %8) #3
  br label %lean_dec.exit

lean_dec.exit:                                    ; preds = %23, %22, %20, %14
  %24 = ptrtoint ptr %7 to i64
  %25 = and i64 %24, 1
  %.not45 = icmp eq i64 %25, 0
  br i1 %.not45, label %26, label %lean_dec.exit24

26:                                               ; preds = %lean_dec.exit
  %27 = load i32, ptr %7, align 4, !tbaa !8
  %28 = icmp sgt i32 %27, 1
  br i1 %28, label %29, label %31, !prof !13

29:                                               ; preds = %26
  %30 = add nsw i32 %27, -1
  store i32 %30, ptr %7, align 4, !tbaa !8
  br label %lean_dec.exit24

31:                                               ; preds = %26
  %.not.i41 = icmp eq i32 %27, 0
  br i1 %.not.i41, label %lean_dec.exit24, label %32

32:                                               ; preds = %31
  tail call void @lean_dec_ref_cold(ptr noundef nonnull %7) #3
  br label %lean_dec.exit24

lean_dec.exit24:                                  ; preds = %32, %31, %29, %lean_dec.exit
  %33 = ptrtoint ptr %6 to i64
  %34 = and i64 %33, 1
  %.not46 = icmp eq i64 %34, 0
  br i1 %.not46, label %35, label %lean_dec.exit25

35:                                               ; preds = %lean_dec.exit24
  %36 = load i32, ptr %6, align 4, !tbaa !8
  %37 = icmp sgt i32 %36, 1
  br i1 %37, label %38, label %40, !prof !13

38:                                               ; preds = %35
  %39 = add nsw i32 %36, -1
  store i32 %39, ptr %6, align 4, !tbaa !8
  br label %lean_dec.exit25

40:                                               ; preds = %35
  %.not.i39 = icmp eq i32 %36, 0
  br i1 %.not.i39, label %lean_dec.exit25, label %41

41:                                               ; preds = %40
  tail call void @lean_dec_ref_cold(ptr noundef nonnull %6) #3
  br label %lean_dec.exit25

lean_dec.exit25:                                  ; preds = %41, %40, %38, %lean_dec.exit24
  %42 = ptrtoint ptr %5 to i64
  %43 = and i64 %42, 1
  %.not47 = icmp eq i64 %43, 0
  br i1 %.not47, label %44, label %lean_dec.exit26

44:                                               ; preds = %lean_dec.exit25
  %45 = load i32, ptr %5, align 4, !tbaa !8
  %46 = icmp sgt i32 %45, 1
  br i1 %46, label %47, label %49, !prof !13

47:                                               ; preds = %44
  %48 = add nsw i32 %45, -1
  store i32 %48, ptr %5, align 4, !tbaa !8
  br label %lean_dec.exit26

49:                                               ; preds = %44
  %.not.i37 = icmp eq i32 %45, 0
  br i1 %.not.i37, label %lean_dec.exit26, label %50

50:                                               ; preds = %49
  tail call void @lean_dec_ref_cold(ptr noundef nonnull %5) #3
  br label %lean_dec.exit26

lean_dec.exit26:                                  ; preds = %50, %49, %47, %lean_dec.exit25
  %51 = ptrtoint ptr %4 to i64
  %52 = and i64 %51, 1
  %.not48 = icmp eq i64 %52, 0
  br i1 %.not48, label %53, label %lean_dec.exit27

53:                                               ; preds = %lean_dec.exit26
  %54 = load i32, ptr %4, align 4, !tbaa !8
  %55 = icmp sgt i32 %54, 1
  br i1 %55, label %56, label %58, !prof !13

56:                                               ; preds = %53
  %57 = add nsw i32 %54, -1
  store i32 %57, ptr %4, align 4, !tbaa !8
  br label %lean_dec.exit27

58:                                               ; preds = %53
  %.not.i35 = icmp eq i32 %54, 0
  br i1 %.not.i35, label %lean_dec.exit27, label %59

59:                                               ; preds = %58
  tail call void @lean_dec_ref_cold(ptr noundef nonnull %4) #3
  br label %lean_dec.exit27

lean_dec.exit27:                                  ; preds = %59, %58, %56, %lean_dec.exit26
  %60 = ptrtoint ptr %3 to i64
  %61 = and i64 %60, 1
  %.not49 = icmp eq i64 %61, 0
  br i1 %.not49, label %62, label %lean_dec.exit28

62:                                               ; preds = %lean_dec.exit27
  %63 = load i32, ptr %3, align 4, !tbaa !8
  %64 = icmp sgt i32 %63, 1
  br i1 %64, label %65, label %67, !prof !13

65:                                               ; preds = %62
  %66 = add nsw i32 %63, -1
  store i32 %66, ptr %3, align 4, !tbaa !8
  br label %lean_dec.exit28

67:                                               ; preds = %62
  %.not.i33 = icmp eq i32 %63, 0
  br i1 %.not.i33, label %lean_dec.exit28, label %68

68:                                               ; preds = %67
  tail call void @lean_dec_ref_cold(ptr noundef nonnull %3) #3
  br label %lean_dec.exit28

lean_dec.exit28:                                  ; preds = %68, %67, %65, %lean_dec.exit27
  %69 = ptrtoint ptr %2 to i64
  %70 = and i64 %69, 1
  %.not50 = icmp eq i64 %70, 0
  br i1 %.not50, label %71, label %lean_dec.exit29

71:                                               ; preds = %lean_dec.exit28
  %72 = load i32, ptr %2, align 4, !tbaa !8
  %73 = icmp sgt i32 %72, 1
  br i1 %73, label %74, label %76, !prof !13

74:                                               ; preds = %71
  %75 = add nsw i32 %72, -1
  store i32 %75, ptr %2, align 4, !tbaa !8
  br label %lean_dec.exit29

76:                                               ; preds = %71
  %.not.i31 = icmp eq i32 %72, 0
  br i1 %.not.i31, label %lean_dec.exit29, label %77

77:                                               ; preds = %76
  tail call void @lean_dec_ref_cold(ptr noundef nonnull %2) #3
  br label %lean_dec.exit29

lean_dec.exit29:                                  ; preds = %77, %76, %74, %lean_dec.exit28
  %78 = ptrtoint ptr %1 to i64
  %79 = and i64 %78, 1
  %.not51 = icmp eq i64 %79, 0
  br i1 %.not51, label %80, label %lean_dec.exit30

80:                                               ; preds = %lean_dec.exit29
  %81 = load i32, ptr %1, align 4, !tbaa !8
  %82 = icmp sgt i32 %81, 1
  br i1 %82, label %83, label %85, !prof !13

83:                                               ; preds = %80
  %84 = add nsw i32 %81, -1
  store i32 %84, ptr %1, align 4, !tbaa !8
  br label %lean_dec.exit30

85:                                               ; preds = %80
  %.not.i = icmp eq i32 %81, 0
  br i1 %.not.i, label %lean_dec.exit30, label %86

86:                                               ; preds = %85
  tail call void @lean_dec_ref_cold(ptr noundef nonnull %1) #3
  br label %lean_dec.exit30

lean_dec.exit30:                                  ; preds = %86, %85, %83, %lean_dec.exit29
  %87 = load ptr, ptr @l_Lean_Elab_throwUnsupportedSyntax___at_Lean_Elab_Tactic_Rfl_evalApplyRfl___spec__1___rarg___closed__2, align 8, !tbaa !4
  tail call void @lean_inc_heartbeat() #3
  %88 = tail call noalias ptr @mi_malloc_small(i64 noundef 24) #3
  %89 = icmp eq ptr %88, null
  br i1 %89, label %90, label %l_Lean_Elab_throwUnsupportedSyntax___at_Lean_Elab_Tactic_Rfl_evalApplyRfl___spec__1___rarg.exit

90:                                               ; preds = %lean_dec.exit30
  tail call void @lean_internal_panic_out_of_memory() #4
  unreachable

l_Lean_Elab_throwUnsupportedSyntax___at_Lean_Elab_Tactic_Rfl_evalApplyRfl___spec__1___rarg.exit: ; preds = %lean_dec.exit30
  %91 = getelementptr inbounds nuw i8, ptr %88, i64 4
  store i32 1, ptr %88, align 4, !tbaa !8
  store i32 16908312, ptr %91, align 4
  %92 = getelementptr inbounds nuw i8, ptr %88, i64 8
  store ptr %87, ptr %92, align 8, !tbaa !4
  %93 = getelementptr inbounds nuw i8, ptr %88, i64 16
  store ptr %9, ptr %93, align 8, !tbaa !4
  br label %97

94:                                               ; preds = %10
  %95 = load ptr, ptr @l_Lean_Elab_Tactic_Rfl_evalApplyRfl___closed__7, align 8, !tbaa !4
  %96 = tail call ptr @l_Lean_Elab_Tactic_withMainContext___rarg(ptr noundef %95, ptr noundef %1, ptr noundef %2, ptr noundef %3, ptr noundef %4, ptr noundef %5, ptr noundef %6, ptr noundef %7, ptr noundef %8, ptr noundef %9) #3
  br label %97

97:                                               ; preds = %94, %l_Lean_Elab_throwUnsupportedSyntax___at_Lean_Elab_Tactic_Rfl_evalApplyRfl___spec__1___rarg.exit
  %.0 = phi ptr [ %88, %l_Lean_Elab_throwUnsupportedSyntax___at_Lean_Elab_Tactic_Rfl_evalApplyRfl___spec__1___rarg.exit ], [ %96, %94 ]
  ret ptr %.0
}